target datalayout = "e-m:e-p270:32:32-p271:32:32-p272:64:64-i64:64-i128:128-f80:128-n8:16:32:64-S128"
target triple = "x86_64-pc-linux-gnu"

%struct.png_struct_def = type { [1 x %struct.__jmp_buf_tag], ptr, ptr, i64, ptr, ptr, ptr, ptr, ptr, ptr, ptr, ptr, ptr, i8, i8, i32, i32, i32, i32, %struct.z_stream_s, ptr, i32, i32, i32, i32, i32, i32, i32, i32, i32, i32, i32, i32, i32, i32, i32, i32, i32, i32, i32, i32, i32, i64, i32, i32, i32, ptr, ptr, ptr, ptr, i64, i32, i32, ptr, i16, i32, i16, i8, i8, i8, i8, i8, i8, i8, i8, i8, i8, i8, i8, i8, i8, i8, i16, i8, i32, %struct.png_color_16_struct, %struct.png_color_16_struct, ptr, i32, i32, %struct.png_xy, i32, i32, i32, i32, i32, ptr, ptr, ptr, ptr, ptr, ptr, %struct.png_color_8_struct, %struct.png_color_8_struct, ptr, %struct.png_color_16_struct, ptr, ptr, ptr, ptr, ptr, ptr, ptr, ptr, ptr, i32, i32, i64, i64, i64, i64, i32, i32, ptr, ptr, i32, [29 x i8], i32, ptr, ptr, i32, i32, ptr, i8, i8, i16, i16, ptr, i32, i8, ptr, ptr, ptr, ptr, ptr, ptr, ptr, i8, i32, i32, i32, i64, %struct.png_unknown_chunk_t, i64, ptr, i64, i32, i32, ptr, [4 x ptr] }
%struct.__jmp_buf_tag = type { [8 x i64], i32, %struct.__sigset_t }
%struct.__sigset_t = type { [16 x i64] }
%struct.z_stream_s = type { ptr, i32, i64, ptr, i32, i64, ptr, ptr, ptr, ptr, ptr, i32, i64, i64 }
%struct.png_xy = type { i32, i32, i32, i32, i32, i32, i32, i32 }
%struct.png_color_8_struct = type { i8, i8, i8, i8, i8 }
%struct.png_color_16_struct = type { i8, i16, i16, i16, i16 }
%struct.png_unknown_chunk_t = type { [5 x i8], ptr, i64, i8 }

@.str = private unnamed_addr constant [34 x i8] c"PNG unsigned integer out of range\00", align 1
@.str.3 = private unnamed_addr constant [28 x i8] c"bad header (invalid length)\00", align 1
@.str.4 = private unnamed_addr constant [26 x i8] c"bad header (invalid type)\00", align 1

; Function Attrs: nounwind uwtable
define internal i32 @check_chunk_name(i32 noundef %0) #0 {
  %2 = alloca i32, align 4
  %3 = alloca i32, align 4
  store i32 %0, ptr %2, align 4, !tbaa !11
  call void @llvm.lifetime.start.p0(i64 4, ptr %3) #7
  %4 = load i32, ptr %2, align 4, !tbaa !11
  %5 = and i32 %4, -538968097
  store i32 %5, ptr %2, align 4, !tbaa !11
  %6 = load i32, ptr %2, align 4, !tbaa !11
  %7 = and i32 %6, -522133280
  %8 = xor i32 %7, 1077952576
  store i32 %8, ptr %3, align 4, !tbaa !11
  %9 = load i32, ptr %2, align 4, !tbaa !11
  %10 = sub i32 %9, 1094795585
  store i32 %10, ptr %2, align 4, !tbaa !11
  %11 = load i32, ptr %2, align 4, !tbaa !11
  %12 = load i32, ptr %3, align 4, !tbaa !11
  %13 = or i32 %12, %11
  store i32 %13, ptr %3, align 4, !tbaa !11
  %14 = load i32, ptr %2, align 4, !tbaa !11
  %15 = sub i32 %14, 421075226
  store i32 %15, ptr %2, align 4, !tbaa !11
  %16 = load i32, ptr %2, align 4, !tbaa !11
  %17 = xor i32 %16, -1
  %18 = load i32, ptr %3, align 4, !tbaa !11
  %19 = or i32 %18, %17
  store i32 %19, ptr %3, align 4, !tbaa !11
  %20 = load i32, ptr %3, align 4, !tbaa !11
  %21 = and i32 %20, -522133280
  %22 = icmp eq i32 %21, 0
  %23 = zext i1 %22 to i32
  call void @llvm.lifetime.end.p0(i64 4, ptr %3) #7
  ret i32 %23
}

; Function Attrs: nounwind uwtable
define i32 @png_get_uint_31(ptr noalias noundef %0, ptr noundef %1) #0 {
  %3 = alloca ptr, align 8
  %4 = alloca ptr, align 8
  %5 = alloca i32, align 4
  store ptr %0, ptr %3, align 8, !tbaa !3
  store ptr %1, ptr %4, align 8, !tbaa !8
  call void @llvm.lifetime.start.p0(i64 4, ptr %5) #7
  %6 = load ptr, ptr %4, align 8, !tbaa !8
  %7 = load i8, ptr %6, align 1, !tbaa !10
  %8 = zext i8 %7 to i32
  %9 = shl i32 %8, 24
  %10 = load ptr, ptr %4, align 8, !tbaa !8
  %11 = getelementptr inbounds i8, ptr %10, i64 1
  %12 = load i8, ptr %11, align 1, !tbaa !10
  %13 = zext i8 %12 to i32
  %14 = shl i32 %13, 16
  %15 = add i32 %9, %14
  %16 = load ptr, ptr %4, align 8, !tbaa !8
  %17 = getelementptr inbounds i8, ptr %16, i64 2
  %18 = load i8, ptr %17, align 1, !tbaa !10
  %19 = zext i8 %18 to i32
  %20 = shl i32 %19, 8
  %21 = add i32 %15, %20
  %22 = load ptr, ptr %4, align 8, !tbaa !8
  %23 = getelementptr inbounds i8, ptr %22, i64 3
  %24 = load i8, ptr %23, align 1, !tbaa !10
  %25 = zext i8 %24 to i32
  %26 = add i32 %21, %25
  store i32 %26, ptr %5, align 4, !tbaa !11
  %27 = load i32, ptr %5, align 4, !tbaa !11
  %28 = icmp ugt i32 %27, 2147483647
  br i1 %28, label %29, label %31

29:                                               ; preds = %2
  %30 = load ptr, ptr %3, align 8, !tbaa !3
  call void @png_error(ptr noundef %30, ptr noundef @.str) #8
  unreachable

31:                                               ; preds = %2
  %32 = load i32, ptr %5, align 4, !tbaa !11
  call void @llvm.lifetime.end.p0(i64 4, ptr %5) #7
  ret i32 %32
}

; Function Attrs: nounwind uwtable
define i32 @png_read_chunk_header(ptr noalias noundef %0) #0 {
  %2 = alloca ptr, align 8
  %3 = alloca [8 x i8], align 1
  %4 = alloca i32, align 4
  %5 = alloca i32, align 4
  store ptr %0, ptr %2, align 8, !tbaa !3
  call void @llvm.lifetime.start.p0(i64 8, ptr %3) #7
  call void @llvm.lifetime.start.p0(i64 4, ptr %4) #7
  call void @llvm.lifetime.start.p0(i64 4, ptr %5) #7
  %6 = load ptr, ptr %2, align 8, !tbaa !3
  %7 = getelementptr inbounds nuw %struct.png_struct_def, ptr %6, i32 0, i32 147
  store i32 33, ptr %7, align 4, !tbaa !30
  %8 = load ptr, ptr %2, align 8, !tbaa !3
  %9 = getelementptr inbounds [8 x i8], ptr %3, i64 0, i64 0
  call void @png_read_data(ptr noundef %8, ptr noundef %9, i64 noundef 8)
  %10 = load ptr, ptr %2, align 8, !tbaa !3
  %11 = getelementptr inbounds [8 x i8], ptr %3, i64 0, i64 0
  %12 = call i32 @png_get_uint_31(ptr noundef %10, ptr noundef %11)
  store i32 %12, ptr %5, align 4, !tbaa !11
  %13 = getelementptr inbounds [8 x i8], ptr %3, i64 0, i64 0
  %14 = getelementptr inbounds i8, ptr %13, i64 4
  %15 = getelementptr inbounds i8, ptr %14, i64 0
  %16 = load i8, ptr %15, align 1, !tbaa !10
  %17 = zext i8 %16 to i32
  %18 = and i32 255, %17
  %19 = and i32 -1, %18
  %20 = shl i32 %19, 24
  %21 = getelementptr inbounds [8 x i8], ptr %3, i64 0, i64 0
  %22 = getelementptr inbounds i8, ptr %21, i64 4
  %23 = getelementptr inbounds i8, ptr %22, i64 1
  %24 = load i8, ptr %23, align 1, !tbaa !10
  %25 = zext i8 %24 to i32
  %26 = and i32 255, %25
  %27 = and i32 -1, %26
  %28 = shl i32 %27, 16
  %29 = or i32 %20, %28
  %30 = getelementptr inbounds [8 x i8], ptr %3, i64 0, i64 0
  %31 = getelementptr inbounds i8, ptr %30, i64 4
  %32 = getelementptr inbounds i8, ptr %31, i64 2
  %33 = load i8, ptr %32, align 1, !tbaa !10
  %34 = zext i8 %33 to i32
  %35 = and i32 255, %34
  %36 = and i32 -1, %35
  %37 = shl i32 %36, 8
  %38 = or i32 %29, %37
  %39 = getelementptr inbounds [8 x i8], ptr %3, i64 0, i64 0
  %40 = getelementptr inbounds i8, ptr %39, i64 4
  %41 = getelementptr inbounds i8, ptr %40, i64 3
  %42 = load i8, ptr %41, align 1, !tbaa !10
  %43 = zext i8 %42 to i32
  %44 = and i32 255, %43
  %45 = and i32 -1, %44
  %46 = shl i32 %45, 0
  %47 = or i32 %38, %46
  store i32 %47, ptr %4, align 4, !tbaa !11
  %48 = load ptr, ptr %2, align 8, !tbaa !3
  %49 = getelementptr inbounds nuw %struct.png_struct_def, ptr %48, i32 0, i32 45
  store i32 %47, ptr %49, align 8, !tbaa !32
  %50 = load ptr, ptr %2, align 8, !tbaa !3
  call void @png_reset_crc(ptr noundef %50)
  %51 = load ptr, ptr %2, align 8, !tbaa !3
  %52 = getelementptr inbounds [8 x i8], ptr %3, i64 0, i64 0
  %53 = getelementptr inbounds i8, ptr %52, i64 4
  call void @png_calculate_crc(ptr noundef %51, ptr noundef %53, i64 noundef 4)
  %54 = getelementptr inbounds [8 x i8], ptr %3, i64 0, i64 0
  %55 = load i8, ptr %54, align 1, !tbaa !10
  %56 = zext i8 %55 to i32
  %57 = icmp uge i32 %56, 128
  br i1 %57, label %58, label %60

58:                                               ; preds = %1
  %59 = load ptr, ptr %2, align 8, !tbaa !3
  call void @png_chunk_error(ptr noundef %59, ptr noundef @.str.3) #8
  unreachable

60:                                               ; preds = %1
  %61 = load i32, ptr %4, align 4, !tbaa !11
  %62 = call i32 @check_chunk_name(i32 noundef %61)
  %63 = icmp ne i32 %62, 0
  br i1 %63, label %66, label %64

64:                                               ; preds = %60
  %65 = load ptr, ptr %2, align 8, !tbaa !3
  call void @png_chunk_error(ptr noundef %65, ptr noundef @.str.4) #8
  unreachable

66:                                               ; preds = %60
  %67 = load ptr, ptr %2, align 8, !tbaa !3
  %68 = getelementptr inbounds nuw %struct.png_struct_def, ptr %67, i32 0, i32 147
  store i32 65, ptr %68, align 4, !tbaa !30
  %69 = load i32, ptr %5, align 4, !tbaa !11
  call void @llvm.lifetime.end.p0(i64 4, ptr %5) #7
  call void @llvm.lifetime.end.p0(i64 4, ptr %4) #7
  call void @llvm.lifetime.end.p0(i64 8, ptr %3) #7
  ret i32 %69
}