; Function Attrs: nounwind uwtable
define range(i32 0, -2147483648) i32 @png_read_chunk_header(ptr noalias noundef initializes((1196, 1200)) %0) local_unnamed_addr #0 {
  %2 = alloca [8 x i8], align 1
  call void @llvm.lifetime.start.p0(i64 8, ptr nonnull %2) #12
  %3 = getelementptr inbounds nuw i8, ptr %0, i64 1196
  store i32 33, ptr %3, align 4, !tbaa !23
  call void @png_read_data(ptr noundef %0, ptr noundef nonnull %2, i64 noundef 8) #12
  %4 = load i8, ptr %2, align 1, !tbaa !3, !noalias !25
  %5 = zext i8 %4 to i32
  %6 = shl nuw i32 %5, 24
  %7 = icmp slt i32 %6, 0
  br i1 %7, label %8, label %png_get_uint_31.exit

8:                                                ; preds = %1
  call void @png_error(ptr noundef nonnull %0, ptr noundef nonnull @.str) #11
  unreachable

png_get_uint_31.exit:                             ; preds = %1
  %9 = getelementptr inbounds nuw i8, ptr %2, i64 1
  %10 = load i8, ptr %9, align 1, !tbaa !3, !noalias !25
  %11 = getelementptr inbounds nuw i8, ptr %2, i64 2
  %12 = load i8, ptr %11, align 1, !tbaa !3, !noalias !25
  %13 = getelementptr inbounds nuw i8, ptr %2, i64 3
  %14 = load i8, ptr %13, align 1, !tbaa !3, !noalias !25
  %15 = getelementptr inbounds nuw i8, ptr %2, i64 4
  %16 = load i8, ptr %15, align 1, !tbaa !3
  %17 = zext i8 %16 to i32
  %18 = shl nuw i32 %17, 24
  %19 = getelementptr inbounds nuw i8, ptr %2, i64 5
  %20 = load i8, ptr %19, align 1, !tbaa !3
  %21 = zext i8 %20 to i32
  %22 = shl nuw nsw i32 %21, 16
  %23 = or disjoint i32 %22, %18
  %24 = getelementptr inbounds nuw i8, ptr %2, i64 6
  %25 = load i8, ptr %24, align 1, !tbaa !3
  %26 = zext i8 %25 to i32
  %27 = shl nuw nsw i32 %26, 8
  %28 = or disjoint i32 %23, %27
  %29 = getelementptr inbounds nuw i8, ptr %2, i64 7
  %30 = load i8, ptr %29, align 1, !tbaa !3
  %31 = zext i8 %30 to i32
  %32 = or disjoint i32 %28, %31
  %33 = getelementptr inbounds nuw i8, ptr %0, i64 544
  store i32 %32, ptr %33, align 8, !tbaa !28
  call void @png_reset_crc(ptr noundef nonnull %0) #12
  call void @png_calculate_crc(ptr noundef nonnull %0, ptr noundef nonnull %15, i64 noundef 4) #12
  %34 = load i8, ptr %2, align 1, !tbaa !3
  %35 = icmp slt i8 %34, 0
  br i1 %35, label %36, label %37

36:                                               ; preds = %png_get_uint_31.exit
  call void @png_chunk_error(ptr noundef nonnull %0, ptr noundef nonnull @.str.3) #11
  unreachable

37:                                               ; preds = %png_get_uint_31.exit
  %38 = and i32 %32, -538968097
  %39 = and i32 %32, -1061101376
  %40 = xor i32 %39, 1077952576
  %41 = add i32 %38, -1094795585
  %42 = or i32 %40, %41
  %43 = sub i32 1515870810, %38
  %44 = or i32 %42, %43
  %45 = and i32 %44, -522133280
  %.not = icmp eq i32 %45, 0
  br i1 %.not, label %47, label %46

46:                                               ; preds = %37
  call void @png_chunk_error(ptr noundef nonnull %0, ptr noundef nonnull @.str.4) #11
  unreachable

47:                                               ; preds = %37
  %48 = zext i8 %10 to i32
  %49 = shl nuw nsw i32 %48, 16
  %50 = zext i8 %14 to i32
  %51 = zext i8 %12 to i32
  %52 = shl nuw nsw i32 %51, 8
  %53 = or disjoint i32 %49, %50
  %54 = or disjoint i32 %53, %52
  %55 = or disjoint i32 %54, %6
  store i32 65, ptr %3, align 4, !tbaa !23
  call void @llvm.lifetime.end.p0(i64 8, ptr nonnull %2) #12
  ret i32 %55
}